target datalayout = "e-m:e-p270:32:32-p271:32:32-p272:64:64-i64:64-i128:128-f80:128-n8:16:32:64-S128"
target triple = "x86_64-pc-linux-gnu"

%struct.SDL_HIDAPI_Device = type { ptr, ptr, ptr, ptr, i16, i16, i16, ptr, %struct.SDL_GUID, i32, i32, i32, i32, i16, i16, i8, i32, i32, i32, ptr, ptr, ptr, ptr, %struct.SDL_AtomicInt, i32, ptr, i8, i8, i8, ptr, i32, ptr, ptr }
%struct.SDL_GUID = type { [16 x i8] }
%struct.SDL_AtomicInt = type { i32 }
%struct.SDL_DriverPS5_Context = type { ptr, ptr, i8, i8, i8, i8, i8, i8, i8, i8, i32, i8, i8, i8, i8, i8, i8, i8, [6 x %struct.IMUCalibrationData], i16, i64, i32, i8, i8, i8, i8, i8, i8, i8, i32, i64, i32, %union.anon }
%struct.IMUCalibrationData = type { i16, float }
%union.anon = type { [64 x i8] }
%struct.DS5EffectsState_t = type { i8, i8, i8, i8, i8, i8, i8, i8, i8, i8, [11 x i8], [11 x i8], [6 x i8], i8, [2 x i8], i8, i8, i8, i8, i8, i8 }

@SetLedsForPlayerIndex.colors = internal constant [7 x [3 x i8]] [[3 x i8] c"\00\00@", [3 x i8] c"@\00\00", [3 x i8] c"\00@\00", [3 x i8] c" \00 ", [3 x i8] c" \10\00", [3 x i8] c"\00\10\10", [3 x i8] c"\10\10\10"], align 16
@SetLightsForPlayerIndex.lights = internal constant [5 x i8] c"\04\0A\15\1B\1F", align 1
@.str.5 = private unnamed_addr constant [32 x i8] c"That operation is not supported\00", align 1

; Function Attrs: nounwind uwtable
define internal void @SetLightsForPlayerIndex(ptr noundef %0, i32 noundef %1) #0 {
  %3 = alloca ptr, align 8
  %4 = alloca i32, align 4
  store ptr %0, ptr %3, align 8
  store i32 %1, ptr %4, align 4
  %5 = load i32, ptr %4, align 4
  %6 = icmp sge i32 %5, 0
  br i1 %6, label %7, label %21

7:                                                ; preds = %2
  %8 = load i32, ptr %4, align 4
  %9 = sext i32 %8 to i64
  %10 = urem i64 %9, 5
  %11 = trunc i64 %10 to i32
  store i32 %11, ptr %4, align 4
  %12 = load i32, ptr %4, align 4
  %13 = sext i32 %12 to i64
  %14 = getelementptr inbounds [5 x i8], ptr @SetLightsForPlayerIndex.lights, i64 0, i64 %13
  %15 = load i8, ptr %14, align 1
  %16 = zext i8 %15 to i32
  %17 = or i32 %16, 32
  %18 = trunc i32 %17 to i8
  %19 = load ptr, ptr %3, align 8
  %20 = getelementptr inbounds nuw %struct.DS5EffectsState_t, ptr %19, i32 0, i32 17
  store i8 %18, ptr %20, align 1
  br label %24

21:                                               ; preds = %2
  %22 = load ptr, ptr %3, align 8
  %23 = getelementptr inbounds nuw %struct.DS5EffectsState_t, ptr %22, i32 0, i32 17
  store i8 0, ptr %23, align 1
  br label %24

24:                                               ; preds = %21, %7
  ret void
}

; Function Attrs: nounwind uwtable
define internal void @SetLedsForPlayerIndex(ptr noundef %0, i32 noundef %1) #0 {
  %3 = alloca ptr, align 8
  %4 = alloca i32, align 4
  store ptr %0, ptr %3, align 8
  store i32 %1, ptr %4, align 4
  %5 = load i32, ptr %4, align 4
  %6 = icmp sge i32 %5, 0
  br i1 %6, label %7, label %12

7:                                                ; preds = %2
  %8 = load i32, ptr %4, align 4
  %9 = sext i32 %8 to i64
  %10 = urem i64 %9, 7
  %11 = trunc i64 %10 to i32
  store i32 %11, ptr %4, align 4
  br label %13

12:                                               ; preds = %2
  store i32 0, ptr %4, align 4
  br label %13

13:                                               ; preds = %12, %7
  %14 = load i32, ptr %4, align 4
  %15 = sext i32 %14 to i64
  %16 = getelementptr inbounds [7 x [3 x i8]], ptr @SetLedsForPlayerIndex.colors, i64 0, i64 %15
  %17 = getelementptr inbounds [3 x i8], ptr %16, i64 0, i64 0
  %18 = load i8, ptr %17, align 1
  %19 = load ptr, ptr %3, align 8
  %20 = getelementptr inbounds nuw %struct.DS5EffectsState_t, ptr %19, i32 0, i32 18
  store i8 %18, ptr %20, align 1
  %21 = load i32, ptr %4, align 4
  %22 = sext i32 %21 to i64
  %23 = getelementptr inbounds [7 x [3 x i8]], ptr @SetLedsForPlayerIndex.colors, i64 0, i64 %22
  %24 = getelementptr inbounds [3 x i8], ptr %23, i64 0, i64 1
  %25 = load i8, ptr %24, align 1
  %26 = load ptr, ptr %3, align 8
  %27 = getelementptr inbounds nuw %struct.DS5EffectsState_t, ptr %26, i32 0, i32 19
  store i8 %25, ptr %27, align 1
  %28 = load i32, ptr %4, align 4
  %29 = sext i32 %28 to i64
  %30 = getelementptr inbounds [7 x [3 x i8]], ptr @SetLedsForPlayerIndex.colors, i64 0, i64 %29
  %31 = getelementptr inbounds [3 x i8], ptr %30, i64 0, i64 2
  %32 = load i8, ptr %31, align 1
  %33 = load ptr, ptr %3, align 8
  %34 = getelementptr inbounds nuw %struct.DS5EffectsState_t, ptr %33, i32 0, i32 20
  store i8 %32, ptr %34, align 1
  ret void
}

; Function Attrs: nounwind uwtable
define internal zeroext i1 @HIDAPI_DriverPS5_UpdateEffects(ptr noundef %0, i32 noundef %1, i1 noundef zeroext %2) #0 {
  %4 = alloca i1, align 1
  %5 = alloca ptr, align 8
  %6 = alloca i32, align 4
  %7 = alloca i8, align 1
  %8 = alloca %struct.DS5EffectsState_t, align 1
  %9 = alloca i32, align 4
  store ptr %0, ptr %5, align 8
  store i32 %1, ptr %6, align 4
  %10 = zext i1 %2 to i8
  store i8 %10, ptr %7, align 1
  call void @llvm.lifetime.start.p0(i64 47, ptr %8) #6
  %11 = load ptr, ptr %5, align 8
  %12 = getelementptr inbounds nuw %struct.SDL_DriverPS5_Context, ptr %11, i32 0, i32 0
  %13 = load ptr, ptr %12, align 8
  %14 = getelementptr inbounds nuw %struct.SDL_HIDAPI_Device, ptr %13, i32 0, i32 15
  %15 = load i8, ptr %14, align 4, !range !5, !noundef !6
  %16 = trunc i8 %15 to i1
  br i1 %16, label %17, label %35

17:                                               ; preds = %3
  %18 = load ptr, ptr %5, align 8
  %19 = getelementptr inbounds nuw %struct.SDL_DriverPS5_Context, ptr %18, i32 0, i32 11
  %20 = load i8, ptr %19, align 4, !range !5, !noundef !6
  %21 = trunc i8 %20 to i1
  br i1 %21, label %22, label %35

22:                                               ; preds = %17
  %23 = load i32, ptr %6, align 4
  %24 = and i32 %23, 24
  %25 = icmp ne i32 %24, 0
  br i1 %25, label %26, label %35

26:                                               ; preds = %22
  %27 = load ptr, ptr %5, align 8
  %28 = getelementptr inbounds nuw %struct.SDL_DriverPS5_Context, ptr %27, i32 0, i32 29
  %29 = load i32, ptr %28, align 4
  %30 = icmp ne i32 %29, 2
  br i1 %30, label %31, label %34

31:                                               ; preds = %26
  %32 = load ptr, ptr %5, align 8
  %33 = getelementptr inbounds nuw %struct.SDL_DriverPS5_Context, ptr %32, i32 0, i32 29
  store i32 1, ptr %33, align 4
  store i1 true, ptr %4, align 1
  store i32 1, ptr %9, align 4
  br label %206

34:                                               ; preds = %26
  br label %35

35:                                               ; preds = %34, %22, %17, %3
  call void @llvm.memset.p0.i64(ptr align 1 %8, i8 0, i64 47, i1 false)
  %36 = load ptr, ptr %5, align 8
  %37 = getelementptr inbounds nuw %struct.SDL_DriverPS5_Context, ptr %36, i32 0, i32 6
  %38 = load i8, ptr %37, align 4, !range !5, !noundef !6
  %39 = trunc i8 %38 to i1
  br i1 %39, label %40, label %115

40:                                               ; preds = %35
  %41 = load ptr, ptr %5, align 8
  %42 = getelementptr inbounds nuw %struct.SDL_DriverPS5_Context, ptr %41, i32 0, i32 23
  %43 = load i8, ptr %42, align 1
  %44 = zext i8 %43 to i32
  %45 = icmp ne i32 %44, 0
  br i1 %45, label %52, label %46

46:                                               ; preds = %40
  %47 = load ptr, ptr %5, align 8
  %48 = getelementptr inbounds nuw %struct.SDL_DriverPS5_Context, ptr %47, i32 0, i32 24
  %49 = load i8, ptr %48, align 2
  %50 = zext i8 %49 to i32
  %51 = icmp ne i32 %50, 0
  br i1 %51, label %52, label %98

52:                                               ; preds = %46, %40
  %53 = load ptr, ptr %5, align 8
  %54 = getelementptr inbounds nuw %struct.SDL_DriverPS5_Context, ptr %53, i32 0, i32 19
  %55 = load i16, ptr %54, align 4
  %56 = zext i16 %55 to i32
  %57 = icmp slt i32 %56, 548
  br i1 %57, label %58, label %78

58:                                               ; preds = %52
  %59 = getelementptr inbounds nuw %struct.DS5EffectsState_t, ptr %8, i32 0, i32 0
  %60 = load i8, ptr %59, align 1
  %61 = zext i8 %60 to i32
  %62 = or i32 %61, 1
  %63 = trunc i32 %62 to i8
  store i8 %63, ptr %59, align 1
  %64 = load ptr, ptr %5, align 8
  %65 = getelementptr inbounds nuw %struct.SDL_DriverPS5_Context, ptr %64, i32 0, i32 23
  %66 = load i8, ptr %65, align 1
  %67 = zext i8 %66 to i32
  %68 = ashr i32 %67, 1
  %69 = trunc i32 %68 to i8
  %70 = getelementptr inbounds nuw %struct.DS5EffectsState_t, ptr %8, i32 0, i32 3
  store i8 %69, ptr %70, align 1
  %71 = load ptr, ptr %5, align 8
  %72 = getelementptr inbounds nuw %struct.SDL_DriverPS5_Context, ptr %71, i32 0, i32 24
  %73 = load i8, ptr %72, align 2
  %74 = zext i8 %73 to i32
  %75 = ashr i32 %74, 1
  %76 = trunc i32 %75 to i8
  %77 = getelementptr inbounds nuw %struct.DS5EffectsState_t, ptr %8, i32 0, i32 2
  store i8 %76, ptr %77, align 1
  br label %92

78:                                               ; preds = %52
  %79 = getelementptr inbounds nuw %struct.DS5EffectsState_t, ptr %8, i32 0, i32 13
  %80 = load i8, ptr %79, align 1
  %81 = zext i8 %80 to i32
  %82 = or i32 %81, 4
  %83 = trunc i32 %82 to i8
  store i8 %83, ptr %79, align 1
  %84 = load ptr, ptr %5, align 8
  %85 = getelementptr inbounds nuw %struct.SDL_DriverPS5_Context, ptr %84, i32 0, i32 23
  %86 = load i8, ptr %85, align 1
  %87 = getelementptr inbounds nuw %struct.DS5EffectsState_t, ptr %8, i32 0, i32 3
  store i8 %86, ptr %87, align 1
  %88 = load ptr, ptr %5, align 8
  %89 = getelementptr inbounds nuw %struct.SDL_DriverPS5_Context, ptr %88, i32 0, i32 24
  %90 = load i8, ptr %89, align 2
  %91 = getelementptr inbounds nuw %struct.DS5EffectsState_t, ptr %8, i32 0, i32 2
  store i8 %90, ptr %91, align 1
  br label %92

92:                                               ; preds = %78, %58
  %93 = getelementptr inbounds nuw %struct.DS5EffectsState_t, ptr %8, i32 0, i32 0
  %94 = load i8, ptr %93, align 1
  %95 = zext i8 %94 to i32
  %96 = or i32 %95, 2
  %97 = trunc i32 %96 to i8
  store i8 %97, ptr %93, align 1
  br label %99

98:                                               ; preds = %46
  br label %99

99:                                               ; preds = %98, %92
  %100 = load i32, ptr %6, align 4
  %101 = and i32 %100, 1
  %102 = icmp ne i32 %101, 0
  br i1 %102, label %103, label %109

103:                                              ; preds = %99
  %104 = getelementptr inbounds nuw %struct.DS5EffectsState_t, ptr %8, i32 0, i32 0
  %105 = load i8, ptr %104, align 1
  %106 = zext i8 %105 to i32
  %107 = or i32 %106, 2
  %108 = trunc i32 %107 to i8
  store i8 %108, ptr %104, align 1
  br label %109

109:                                              ; preds = %103, %99
  %110 = load i32, ptr %6, align 4
  %111 = and i32 %110, 2
  %112 = icmp ne i32 %111, 0
  br i1 %112, label %113, label %114

113:                                              ; preds = %109
  br label %114

114:                                              ; preds = %113, %109
  br label %115

115:                                              ; preds = %114, %35
  %116 = load ptr, ptr %5, align 8
  %117 = getelementptr inbounds nuw %struct.SDL_DriverPS5_Context, ptr %116, i32 0, i32 5
  %118 = load i8, ptr %117, align 1, !range !5, !noundef !6
  %119 = trunc i8 %118 to i1
  br i1 %119, label %120, label %163

120:                                              ; preds = %115
  %121 = load i32, ptr %6, align 4
  %122 = and i32 %121, 4
  %123 = icmp ne i32 %122, 0
  br i1 %123, label %124, label %130

124:                                              ; preds = %120
  %125 = getelementptr inbounds nuw %struct.DS5EffectsState_t, ptr %8, i32 0, i32 1
  %126 = load i8, ptr %125, align 1
  %127 = zext i8 %126 to i32
  %128 = or i32 %127, 8
  %129 = trunc i32 %128 to i8
  store i8 %129, ptr %125, align 1
  br label %130

130:                                              ; preds = %124, %120
  %131 = load i32, ptr %6, align 4
  %132 = and i32 %131, 8
  %133 = icmp ne i32 %132, 0
  br i1 %133, label %134, label %162

134:                                              ; preds = %130
  %135 = getelementptr inbounds nuw %struct.DS5EffectsState_t, ptr %8, i32 0, i32 1
  %136 = load i8, ptr %135, align 1
  %137 = zext i8 %136 to i32
  %138 = or i32 %137, 4
  %139 = trunc i32 %138 to i8
  store i8 %139, ptr %135, align 1
  %140 = load ptr, ptr %5, align 8
  %141 = getelementptr inbounds nuw %struct.SDL_DriverPS5_Context, ptr %140, i32 0, i32 25
  %142 = load i8, ptr %141, align 1, !range !5, !noundef !6
  %143 = trunc i8 %142 to i1
  br i1 %143, label %144, label %157

144:                                              ; preds = %134
  %145 = load ptr, ptr %5, align 8
  %146 = getelementptr inbounds nuw %struct.SDL_DriverPS5_Context, ptr %145, i32 0, i32 26
  %147 = load i8, ptr %146, align 8
  %148 = getelementptr inbounds nuw %struct.DS5EffectsState_t, ptr %8, i32 0, i32 18
  store i8 %147, ptr %148, align 1
  %149 = load ptr, ptr %5, align 8
  %150 = getelementptr inbounds nuw %struct.SDL_DriverPS5_Context, ptr %149, i32 0, i32 27
  %151 = load i8, ptr %150, align 1
  %152 = getelementptr inbounds nuw %struct.DS5EffectsState_t, ptr %8, i32 0, i32 19
  store i8 %151, ptr %152, align 1
  %153 = load ptr, ptr %5, align 8
  %154 = getelementptr inbounds nuw %struct.SDL_DriverPS5_Context, ptr %153, i32 0, i32 28
  %155 = load i8, ptr %154, align 2
  %156 = getelementptr inbounds nuw %struct.DS5EffectsState_t, ptr %8, i32 0, i32 20
  store i8 %155, ptr %156, align 1
  br label %161

157:                                              ; preds = %134
  %158 = load ptr, ptr %5, align 8
  %159 = getelementptr inbounds nuw %struct.SDL_DriverPS5_Context, ptr %158, i32 0, i32 21
  %160 = load i32, ptr %159, align 8
  call void @SetLedsForPlayerIndex(ptr noundef %8, i32 noundef %160)
  br label %161

161:                                              ; preds = %157, %144
  br label %162

162:                                              ; preds = %161, %130
  br label %163

163:                                              ; preds = %162, %115
  %164 = load ptr, ptr %5, align 8
  %165 = getelementptr inbounds nuw %struct.SDL_DriverPS5_Context, ptr %164, i32 0, i32 7
  %166 = load i8, ptr %165, align 1, !range !5, !noundef !6
  %167 = trunc i8 %166 to i1
  br i1 %167, label %168, label %190

168:                                              ; preds = %163
  %169 = load i32, ptr %6, align 4
  %170 = and i32 %169, 16
  %171 = icmp ne i32 %170, 0
  br i1 %171, label %172, label %189

172:                                              ; preds = %168
  %173 = getelementptr inbounds nuw %struct.DS5EffectsState_t, ptr %8, i32 0, i32 1
  %174 = load i8, ptr %173, align 1
  %175 = zext i8 %174 to i32
  %176 = or i32 %175, 16
  %177 = trunc i32 %176 to i8
  store i8 %177, ptr %173, align 1
  %178 = load ptr, ptr %5, align 8
  %179 = getelementptr inbounds nuw %struct.SDL_DriverPS5_Context, ptr %178, i32 0, i32 22
  %180 = load i8, ptr %179, align 4, !range !5, !noundef !6
  %181 = trunc i8 %180 to i1
  br i1 %181, label %182, label %186

182:                                              ; preds = %172
  %183 = load ptr, ptr %5, align 8
  %184 = getelementptr inbounds nuw %struct.SDL_DriverPS5_Context, ptr %183, i32 0, i32 21
  %185 = load i32, ptr %184, align 8
  call void @SetLightsForPlayerIndex(ptr noundef %8, i32 noundef %185)
  br label %188

186:                                              ; preds = %172
  %187 = getelementptr inbounds nuw %struct.DS5EffectsState_t, ptr %8, i32 0, i32 17
  store i8 0, ptr %187, align 1
  br label %188

188:                                              ; preds = %186, %182
  br label %189

189:                                              ; preds = %188, %168
  br label %190

190:                                              ; preds = %189, %163
  %191 = load i32, ptr %6, align 4
  %192 = and i32 %191, 32
  %193 = icmp ne i32 %192, 0
  br i1 %193, label %194, label %201

194:                                              ; preds = %190
  %195 = getelementptr inbounds nuw %struct.DS5EffectsState_t, ptr %8, i32 0, i32 1
  %196 = load i8, ptr %195, align 1
  %197 = zext i8 %196 to i32
  %198 = or i32 %197, 1
  %199 = trunc i32 %198 to i8
  store i8 %199, ptr %195, align 1
  %200 = getelementptr inbounds nuw %struct.DS5EffectsState_t, ptr %8, i32 0, i32 8
  store i8 0, ptr %200, align 1
  br label %201

201:                                              ; preds = %194, %190
  %202 = load ptr, ptr %5, align 8
  %203 = load i8, ptr %7, align 1, !range !5, !noundef !6
  %204 = trunc i8 %203 to i1
  %205 = call zeroext i1 @HIDAPI_DriverPS5_InternalSendJoystickEffect(ptr noundef %202, ptr noundef %8, i32 noundef 47, i1 noundef zeroext %204)
  store i1 %205, ptr %4, align 1
  store i32 1, ptr %9, align 4
  br label %206

206:                                              ; preds = %201, %31
  call void @llvm.lifetime.end.p0(i64 47, ptr %8) #6
  %207 = load i1, ptr %4, align 1
  ret i1 %207
}

; Function Attrs: nounwind uwtable
define internal zeroext i1 @HIDAPI_DriverPS5_RumbleJoystick(ptr noundef %0, ptr noundef %1, i16 noundef zeroext %2, i16 noundef zeroext %3) #0 {
  %5 = alloca i1, align 1
  %6 = alloca ptr, align 8
  %7 = alloca ptr, align 8
  %8 = alloca i16, align 2
  %9 = alloca i16, align 2
  %10 = alloca ptr, align 8
  %11 = alloca i32, align 4
  store ptr %0, ptr %6, align 8
  store ptr %1, ptr %7, align 8
  store i16 %2, ptr %8, align 2
  store i16 %3, ptr %9, align 2
  call void @llvm.lifetime.start.p0(i64 8, ptr %10) #6
  %12 = load ptr, ptr %6, align 8
  %13 = getelementptr inbounds nuw %struct.SDL_HIDAPI_Device, ptr %12, i32 0, i32 20
  %14 = load ptr, ptr %13, align 8
  store ptr %14, ptr %10, align 8
  %15 = load ptr, ptr %10, align 8
  %16 = getelementptr inbounds nuw %struct.SDL_DriverPS5_Context, ptr %15, i32 0, i32 6
  %17 = load i8, ptr %16, align 4, !range !5, !noundef !6
  %18 = trunc i8 %17 to i1
  br i1 %18, label %21, label %19

19:                                               ; preds = %4
  %20 = call zeroext i1 (ptr, ...) @SDL_SetError_REAL(ptr noundef @.str.5)
  store i1 %20, ptr %5, align 1
  store i32 1, ptr %11, align 4
  br label %49

21:                                               ; preds = %4
  %22 = load ptr, ptr %10, align 8
  %23 = getelementptr inbounds nuw %struct.SDL_DriverPS5_Context, ptr %22, i32 0, i32 23
  %24 = load i8, ptr %23, align 1
  %25 = icmp ne i8 %24, 0
  br i1 %25, label %34, label %26

26:                                               ; preds = %21
  %27 = load ptr, ptr %10, align 8
  %28 = getelementptr inbounds nuw %struct.SDL_DriverPS5_Context, ptr %27, i32 0, i32 24
  %29 = load i8, ptr %28, align 2
  %30 = icmp ne i8 %29, 0
  br i1 %30, label %34, label %31

31:                                               ; preds = %26
  %32 = load ptr, ptr %10, align 8
  %33 = call zeroext i1 @HIDAPI_DriverPS5_UpdateEffects(ptr noundef %32, i32 noundef 1, i1 noundef zeroext true)
  br label %34

34:                                               ; preds = %31, %26, %21
  %35 = load i16, ptr %8, align 2
  %36 = zext i16 %35 to i32
  %37 = ashr i32 %36, 8
  %38 = trunc i32 %37 to i8
  %39 = load ptr, ptr %10, align 8
  %40 = getelementptr inbounds nuw %struct.SDL_DriverPS5_Context, ptr %39, i32 0, i32 23
  store i8 %38, ptr %40, align 1
  %41 = load i16, ptr %9, align 2
  %42 = zext i16 %41 to i32
  %43 = ashr i32 %42, 8
  %44 = trunc i32 %43 to i8
  %45 = load ptr, ptr %10, align 8
  %46 = getelementptr inbounds nuw %struct.SDL_DriverPS5_Context, ptr %45, i32 0, i32 24
  store i8 %44, ptr %46, align 2
  %47 = load ptr, ptr %10, align 8
  %48 = call zeroext i1 @HIDAPI_DriverPS5_UpdateEffects(ptr noundef %47, i32 noundef 2, i1 noundef zeroext true)
  store i1 %48, ptr %5, align 1
  store i32 1, ptr %11, align 4
  br label %49

49:                                               ; preds = %34, %19
  call void @llvm.lifetime.end.p0(i64 8, ptr %10) #6
  %50 = load i1, ptr %5, align 1
  ret i1 %50
}