; Function Attrs: nounwind uwtable
define internal zeroext i1 @HIDAPI_DriverPS5_RumbleJoystick(ptr noundef readonly captures(none) %0, ptr readnone captures(none) %1, i16 noundef zeroext %2, i16 noundef zeroext %3) #0 {
  %5 = alloca %struct.DS5EffectsState_t, align 1
  %6 = alloca %struct.DS5EffectsState_t, align 1
  %7 = getelementptr inbounds nuw i8, ptr %0, i64 112
  %8 = load ptr, ptr %7, align 8
  %9 = getelementptr inbounds nuw i8, ptr %8, i64 20
  %10 = load i8, ptr %9, align 4, !range !5, !noundef !6
  %11 = trunc nuw i8 %10 to i1
  br i1 %11, label %14, label %12

12:                                               ; preds = %4
  %13 = tail call zeroext i1 (ptr, ...) @SDL_SetError_REAL(ptr noundef nonnull @.str.5) #9
  br label %45

14:                                               ; preds = %4
  %15 = getelementptr inbounds nuw i8, ptr %8, i64 101
  %16 = load i8, ptr %15, align 1
  %.not = icmp eq i8 %16, 0
  br i1 %.not, label %17, label %23

17:                                               ; preds = %14
  %18 = getelementptr inbounds nuw i8, ptr %8, i64 102
  %19 = load i8, ptr %18, align 2
  %.not10 = icmp eq i8 %19, 0
  br i1 %.not10, label %HIDAPI_DriverPS5_UpdateEffects.exit, label %23

HIDAPI_DriverPS5_UpdateEffects.exit:              ; preds = %17
  call void @llvm.lifetime.start.p0(i64 47, ptr nonnull %6) #9
  %20 = getelementptr inbounds nuw i8, ptr %6, i64 1
  call void @llvm.memset.p0.i64(ptr noundef nonnull align 1 dereferenceable(46) %20, i8 0, i64 46, i1 false)
  store i8 2, ptr %6, align 1
  %21 = call fastcc zeroext i1 @HIDAPI_DriverPS5_InternalSendJoystickEffect(ptr noundef nonnull %8, ptr noundef nonnull %6, i32 noundef 47, i1 noundef zeroext true) #11
  call void @llvm.lifetime.end.p0(i64 47, ptr nonnull %6) #9
  %.pre = load i8, ptr %9, align 4, !range !5
  %22 = trunc nuw i8 %.pre to i1
  br label %23

23:                                               ; preds = %HIDAPI_DriverPS5_UpdateEffects.exit, %17, %14
  %24 = phi i1 [ %22, %HIDAPI_DriverPS5_UpdateEffects.exit ], [ true, %17 ], [ true, %14 ]
  %25 = lshr i16 %2, 8
  %26 = trunc nuw i16 %25 to i8
  store i8 %26, ptr %15, align 1
  %27 = lshr i16 %3, 8
  %28 = trunc nuw i16 %27 to i8
  %29 = getelementptr inbounds nuw i8, ptr %8, i64 102
  store i8 %28, ptr %29, align 2
  call void @llvm.lifetime.start.p0(i64 47, ptr nonnull %5) #9
  call void @llvm.memset.p0.i64(ptr noundef nonnull align 1 dereferenceable(47) %5, i8 0, i64 47, i1 false)
  %30 = or i16 %3, %2
  %or.cond = icmp ugt i16 %30, 255
  %or.cond17.not = and i1 %or.cond, %24
  br i1 %or.cond17.not, label %31, label %HIDAPI_DriverPS5_UpdateEffects.exit15

31:                                               ; preds = %23
  %32 = getelementptr inbounds nuw i8, ptr %8, i64 84
  %33 = load i16, ptr %32, align 4
  %34 = icmp ult i16 %33, 548
  br i1 %34, label %35, label %38

35:                                               ; preds = %31
  %36 = lshr i8 %26, 1
  %37 = lshr i8 %28, 1
  br label %40

38:                                               ; preds = %31
  %39 = getelementptr inbounds nuw i8, ptr %5, i64 38
  store i8 4, ptr %39, align 1
  br label %40

40:                                               ; preds = %38, %35
  %41 = phi i8 [ 3, %35 ], [ 2, %38 ]
  %.sink40.i12 = phi i8 [ %36, %35 ], [ %26, %38 ]
  %.sink.i13 = phi i8 [ %37, %35 ], [ %28, %38 ]
  %42 = getelementptr inbounds nuw i8, ptr %5, i64 3
  store i8 %.sink40.i12, ptr %42, align 1
  %43 = getelementptr inbounds nuw i8, ptr %5, i64 2
  store i8 %.sink.i13, ptr %43, align 1
  store i8 %41, ptr %5, align 1
  br label %HIDAPI_DriverPS5_UpdateEffects.exit15

HIDAPI_DriverPS5_UpdateEffects.exit15:            ; preds = %23, %40
  %44 = call fastcc zeroext i1 @HIDAPI_DriverPS5_InternalSendJoystickEffect(ptr noundef nonnull %8, ptr noundef nonnull %5, i32 noundef 47, i1 noundef zeroext true) #11
  call void @llvm.lifetime.end.p0(i64 47, ptr nonnull %5) #9
  br label %45

45:                                               ; preds = %HIDAPI_DriverPS5_UpdateEffects.exit15, %12
  %.0 = phi i1 [ %44, %HIDAPI_DriverPS5_UpdateEffects.exit15 ], [ %13, %12 ]
  ret i1 %.0
}